target datalayout = "e-m:e-p270:32:32-p271:32:32-p272:64:64-i64:64-i128:128-f80:128-n8:16:32:64-S128"
target triple = "x86_64-pc-linux-gnu"

%struct.pref_module = type { ptr, ptr, ptr, ptr, ptr, ptr, ptr, ptr, i32, i32, i8, i8, i32 }

; Function Attrs: null_pointer_is_valid sspstrong uwtable
define internal zeroext i1 @call_apply_cb(ptr noundef %0, ptr noundef %1, ptr noundef %2) #1 {
  %4 = alloca i1, align 1
  %5 = alloca ptr, align 8
  %6 = alloca ptr, align 8
  %7 = alloca ptr, align 8
  %8 = alloca ptr, align 8
  %9 = alloca i32, align 4
  store ptr %0, ptr %5, align 8
  store ptr %1, ptr %6, align 8
  store ptr %2, ptr %7, align 8
  call void @llvm.lifetime.start.p0(i64 8, ptr %8) #17
  %10 = load ptr, ptr %6, align 8
  store ptr %10, ptr %8, align 8
  %11 = load ptr, ptr %8, align 8
  %12 = getelementptr inbounds nuw %struct.pref_module, ptr %11, i32 0, i32 10
  %13 = load i8, ptr %12, align 8, !range !6, !noundef !7
  %14 = trunc i8 %13 to i1
  br i1 %14, label %15, label %16

15:                                               ; preds = %3
  store i1 false, ptr %4, align 1
  store i32 1, ptr %9, align 4
  br label %44

16:                                               ; preds = %3
  %17 = load ptr, ptr %8, align 8
  %18 = getelementptr inbounds nuw %struct.pref_module, ptr %17, i32 0, i32 9
  %19 = load i32, ptr %18, align 4
  %20 = icmp ne i32 %19, 0
  br i1 %20, label %21, label %33

21:                                               ; preds = %16
  %22 = load ptr, ptr %8, align 8
  %23 = getelementptr inbounds nuw %struct.pref_module, ptr %22, i32 0, i32 4
  %24 = load ptr, ptr %23, align 8
  %25 = icmp ne ptr %24, null
  br i1 %25, label %26, label %30

26:                                               ; preds = %21
  %27 = load ptr, ptr %8, align 8
  %28 = getelementptr inbounds nuw %struct.pref_module, ptr %27, i32 0, i32 4
  %29 = load ptr, ptr %28, align 8
  call void %29()
  br label %30

30:                                               ; preds = %26, %21
  %31 = load ptr, ptr %8, align 8
  %32 = getelementptr inbounds nuw %struct.pref_module, ptr %31, i32 0, i32 9
  store i32 0, ptr %32, align 4
  br label %33

33:                                               ; preds = %30, %16
  %34 = load ptr, ptr %8, align 8
  %35 = getelementptr inbounds nuw %struct.pref_module, ptr %34, i32 0, i32 7
  %36 = load ptr, ptr %35, align 8
  %37 = icmp ne ptr %36, null
  br i1 %37, label %38, label %43

38:                                               ; preds = %33
  %39 = load ptr, ptr %8, align 8
  %40 = getelementptr inbounds nuw %struct.pref_module, ptr %39, i32 0, i32 7
  %41 = load ptr, ptr %40, align 8
  %42 = call zeroext i1 @wmem_tree_foreach(ptr noundef %41, ptr noundef @call_apply_cb, ptr noundef null)
  br label %43

43:                                               ; preds = %38, %33
  store i1 false, ptr %4, align 1
  store i32 1, ptr %9, align 4
  br label %44

44:                                               ; preds = %43, %15
  call void @llvm.lifetime.end.p0(i64 8, ptr %8) #17
  %45 = load i1, ptr %4, align 1
  ret i1 %45
}