; Function Attrs: null_pointer_is_valid sspstrong uwtable
define internal noundef zeroext i1 @call_apply_cb(ptr readnone captures(none) %0, ptr noundef captures(none) %1, ptr readnone captures(none) %2) #1 {
  %4 = getelementptr inbounds nuw i8, ptr %1, i64 72
  %5 = load i8, ptr %4, align 8, !range !6, !noundef !7
  %6 = trunc nuw i8 %5 to i1
  br i1 %6, label %20, label %7

7:                                                ; preds = %3
  %8 = getelementptr inbounds nuw i8, ptr %1, i64 68
  %9 = load i32, ptr %8, align 4
  %.not = icmp eq i32 %9, 0
  br i1 %.not, label %15, label %10

10:                                               ; preds = %7
  %11 = getelementptr inbounds nuw i8, ptr %1, i64 32
  %12 = load ptr, ptr %11, align 8
  %.not10 = icmp eq ptr %12, null
  br i1 %.not10, label %14, label %13

13:                                               ; preds = %10
  tail call void %12()
  br label %14

14:                                               ; preds = %13, %10
  store i32 0, ptr %8, align 4
  br label %15

15:                                               ; preds = %14, %7
  %16 = getelementptr inbounds nuw i8, ptr %1, i64 56
  %17 = load ptr, ptr %16, align 8
  %.not11 = icmp eq ptr %17, null
  br i1 %.not11, label %20, label %18

18:                                               ; preds = %15
  %19 = tail call zeroext i1 @wmem_tree_foreach(ptr noundef nonnull %17, ptr noundef nonnull @call_apply_cb, ptr noundef null)
  br label %20

20:                                               ; preds = %15, %18, %3
  ret i1 false
}